; Function Attrs: mustprogress nounwind uwtable
define dso_local { ptr, i64 } @_ZNK5clang6driver9ToolChain27getDefaultUniversalArchNameEv(ptr noundef nonnull align 8 dereferenceable(2168) %0) local_unnamed_addr #0 align 2 {
  %2 = getelementptr inbounds i8, ptr %0, i64 48
  %3 = load i32, ptr %2, align 8
  switch i32 %3, label %12 [
    i32 3, label %4
    i32 5, label %17
    i32 21, label %8
    i32 22, label %9
    i32 23, label %10
    i32 24, label %11
  ]

4:                                                ; preds = %1
  %5 = getelementptr inbounds i8, ptr %0, i64 52
  %6 = load i32, ptr %5, align 4
  %7 = icmp eq i32 %6, 34
  %. = select i1 %7, i64 6, i64 5
  %.str.13..str.14 = select i1 %7, ptr @.str.13, ptr @.str.14
  br label %17

8:                                                ; preds = %1
  br label %17

9:                                                ; preds = %1
  br label %17

10:                                               ; preds = %1
  br label %17

11:                                               ; preds = %1
  br label %17

12:                                               ; preds = %1
  %13 = getelementptr inbounds nuw i8, ptr %0, i64 16
  %14 = tail call { ptr, i64 } @_ZNK4llvm6Triple11getArchNameEv(ptr noundef nonnull align 8 dereferenceable(56) %13) #25
  %15 = extractvalue { ptr, i64 } %14, 0
  %16 = extractvalue { ptr, i64 } %14, 1
  br label %17

17:                                               ; preds = %1, %4, %12, %11, %10, %9, %8
  %.sroa.9.0 = phi i64 [ %16, %12 ], [ 7, %11 ], [ 5, %10 ], [ 5, %9 ], [ 3, %8 ], [ %., %4 ], [ 8, %1 ]
  %.sroa.0.0 = phi ptr [ %15, %12 ], [ @.str.19, %11 ], [ @.str.18, %10 ], [ @.str.17, %9 ], [ @.str.16, %8 ], [ %.str.13..str.14, %4 ], [ @.str.15, %1 ]
  %.fca.0.insert = insertvalue { ptr, i64 } poison, ptr %.sroa.0.0, 0
  %.fca.1.insert = insertvalue { ptr, i64 } %.fca.0.insert, i64 %.sroa.9.0, 1
  ret { ptr, i64 } %.fca.1.insert
}